target datalayout = "e-m:e-p270:32:32-p271:32:32-p272:64:64-i64:64-i128:128-f80:128-n8:16:32:64-S128"
target triple = "x86_64-pc-linux-gnu"

%union.pthread_mutex_t = type { %struct.__pthread_mutex_s }
%struct.__pthread_mutex_s = type { i32, i32, i32, i32, i32, i16, i16, %struct.__pthread_internal_list }
%struct.__pthread_internal_list = type { ptr, ptr }
%union.pthread_cond_t = type { %struct.__pthread_cond_s }
%struct.__pthread_cond_s = type { %union.__atomic_wide_counter, %union.__atomic_wide_counter, [2 x i32], [2 x i32], i32, i32, [2 x i32] }
%union.__atomic_wide_counter = type { i64 }

@slurmdbd_conn = dso_local global ptr null, align 8
@slurmdbd_lock = internal global %union.pthread_mutex_t zeroinitializer, align 8
@.str = private unnamed_addr constant [29 x i8] c"%s: pthread_mutex_lock(): %m\00", align 1
@slurmdbd_shutdown = internal global i64 0, align 8
@.str.1 = private unnamed_addr constant [31 x i8] c"%s: pthread_mutex_unlock(): %m\00", align 1
@agent_lock = internal global %union.pthread_mutex_t zeroinitializer, align 8
@agent_tid = internal global i64 0, align 8
@__func__.slurmdbd_agent_rem_conn = private unnamed_addr constant [24 x i8] c"slurmdbd_agent_rem_conn\00", align 1
@.str.3 = private unnamed_addr constant [17 x i8] c"slurmdbd_agent.c\00", align 1
@agent_cond = internal global %union.pthread_cond_t zeroinitializer, align 8
@.str.9 = private unnamed_addr constant [39 x i8] c"%s:%d %s: pthread_cond_broadcast(): %m\00", align 1
@agent_running = internal global i8 0, align 1
@__func__._shutdown_agent = private unnamed_addr constant [16 x i8] c"_shutdown_agent\00", align 1
@.str.65 = private unnamed_addr constant [23 x i8] c"%s: pthread_join(): %m\00", align 1

; Function Attrs: nounwind uwtable
define internal void @_shutdown_agent() #0 {
  %1 = alloca i32, align 4
  %2 = alloca i32, align 4
  %3 = alloca i32, align 4
  %4 = alloca i32, align 4
  %5 = load i64, ptr @agent_tid, align 8
  %6 = icmp ne i64 %5, 0
  br i1 %6, label %8, label %7

7:                                                ; preds = %0
  br label %56

8:                                                ; preds = %0
  %9 = call i64 @time(ptr noundef null) #9
  store i64 %9, ptr @slurmdbd_shutdown, align 8
  br label %10

10:                                               ; preds = %8
  call void @llvm.lifetime.start.p0(i64 4, ptr %1) #9
  %11 = call i32 @pthread_mutex_lock(ptr noundef @agent_lock) #9
  store i32 %11, ptr %1, align 4
  %12 = load i32, ptr %1, align 4
  %13 = icmp ne i32 %12, 0
  br i1 %13, label %14, label %17

14:                                               ; preds = %10
  %15 = load i32, ptr %1, align 4
  %16 = call ptr @__errno_location() #10
  store i32 %15, ptr %16, align 4
  call void (ptr, ...) @slurm_fatal_abort(ptr noundef @.str, ptr noundef @__func__._shutdown_agent) #11
  unreachable

17:                                               ; preds = %10
  call void @llvm.lifetime.end.p0(i64 4, ptr %1) #9
  br label %18

18:                                               ; preds = %17
  %19 = load i8, ptr @agent_running, align 1, !range !10, !noundef !11
  %20 = trunc i8 %19 to i1
  br i1 %20, label %21, label %32

21:                                               ; preds = %18
  br label %22

22:                                               ; preds = %21
  call void @llvm.lifetime.start.p0(i64 4, ptr %2) #9
  %23 = call i32 @pthread_cond_broadcast(ptr noundef @agent_cond) #9
  store i32 %23, ptr %2, align 4
  %24 = load i32, ptr %2, align 4
  %25 = icmp ne i32 %24, 0
  br i1 %25, label %26, label %30

26:                                               ; preds = %22
  %27 = load i32, ptr %2, align 4
  %28 = call ptr @__errno_location() #10
  store i32 %27, ptr %28, align 4
  %29 = call i32 (ptr, ...) @slurm_error(ptr noundef @.str.9, ptr noundef @.str.3, i32 noundef 894, ptr noundef @__func__._shutdown_agent)
  br label %30

30:                                               ; preds = %26, %22
  call void @llvm.lifetime.end.p0(i64 4, ptr %2) #9
  br label %31

31:                                               ; preds = %30
  br label %32

32:                                               ; preds = %31, %18
  br label %33

33:                                               ; preds = %32
  call void @llvm.lifetime.start.p0(i64 4, ptr %3) #9
  %34 = call i32 @pthread_mutex_unlock(ptr noundef @agent_lock) #9
  store i32 %34, ptr %3, align 4
  %35 = load i32, ptr %3, align 4
  %36 = icmp ne i32 %35, 0
  br i1 %36, label %37, label %40

37:                                               ; preds = %33
  %38 = load i32, ptr %3, align 4
  %39 = call ptr @__errno_location() #10
  store i32 %38, ptr %39, align 4
  call void (ptr, ...) @slurm_fatal_abort(ptr noundef @.str.1, ptr noundef @__func__._shutdown_agent) #11
  unreachable

40:                                               ; preds = %33
  call void @llvm.lifetime.end.p0(i64 4, ptr %3) #9
  br label %41

41:                                               ; preds = %40
  br label %42

42:                                               ; preds = %41
  call void @llvm.lifetime.start.p0(i64 4, ptr %4) #9
  store i32 0, ptr %4, align 4
  %43 = load i64, ptr @agent_tid, align 8
  %44 = icmp ne i64 %43, 0
  br i1 %44, label %45, label %48

45:                                               ; preds = %42
  %46 = load i64, ptr @agent_tid, align 8
  %47 = call i32 @pthread_join(i64 noundef %46, ptr noundef null)
  store i32 %47, ptr %4, align 4
  store i64 0, ptr @agent_tid, align 8
  br label %48

48:                                               ; preds = %45, %42
  %49 = load i32, ptr %4, align 4
  %50 = icmp ne i32 %49, 0
  br i1 %50, label %51, label %55

51:                                               ; preds = %48
  %52 = load i32, ptr %4, align 4
  %53 = call ptr @__errno_location() #10
  store i32 %52, ptr %53, align 4
  %54 = call i32 (ptr, ...) @slurm_error(ptr noundef @.str.65, ptr noundef @__func__._shutdown_agent)
  br label %55

55:                                               ; preds = %51, %48
  call void @llvm.lifetime.end.p0(i64 4, ptr %4) #9
  br label %56

56:                                               ; preds = %7, %55
  ret void
}

; Function Attrs: nounwind uwtable
define dso_local void @slurmdbd_agent_rem_conn() #0 {
  %1 = alloca i32, align 4
  %2 = alloca i32, align 4
  %3 = call zeroext i1 @slurm_running_in_slurmctld()
  br i1 %3, label %5, label %4

4:                                                ; preds = %0
  br label %23

5:                                                ; preds = %0
  call void @_shutdown_agent()
  br label %6

6:                                                ; preds = %5
  call void @llvm.lifetime.start.p0(i64 4, ptr %1) #9
  %7 = call i32 @pthread_mutex_lock(ptr noundef @slurmdbd_lock) #9
  store i32 %7, ptr %1, align 4
  %8 = load i32, ptr %1, align 4
  %9 = icmp ne i32 %8, 0
  br i1 %9, label %10, label %13

10:                                               ; preds = %6
  %11 = load i32, ptr %1, align 4
  %12 = call ptr @__errno_location() #10
  store i32 %11, ptr %12, align 4
  call void (ptr, ...) @slurm_fatal_abort(ptr noundef @.str, ptr noundef @__func__.slurmdbd_agent_rem_conn) #11
  unreachable

13:                                               ; preds = %6
  call void @llvm.lifetime.end.p0(i64 4, ptr %1) #9
  br label %14

14:                                               ; preds = %13
  store ptr null, ptr @slurmdbd_conn, align 8
  br label %15

15:                                               ; preds = %14
  call void @llvm.lifetime.start.p0(i64 4, ptr %2) #9
  %16 = call i32 @pthread_mutex_unlock(ptr noundef @slurmdbd_lock) #9
  store i32 %16, ptr %2, align 4
  %17 = load i32, ptr %2, align 4
  %18 = icmp ne i32 %17, 0
  br i1 %18, label %19, label %22

19:                                               ; preds = %15
  %20 = load i32, ptr %2, align 4
  %21 = call ptr @__errno_location() #10
  store i32 %20, ptr %21, align 4
  call void (ptr, ...) @slurm_fatal_abort(ptr noundef @.str.1, ptr noundef @__func__.slurmdbd_agent_rem_conn) #11
  unreachable

22:                                               ; preds = %15
  call void @llvm.lifetime.end.p0(i64 4, ptr %2) #9
  br label %23

23:                                               ; preds = %4, %22
  ret void
}