; Function Attrs: nounwind uwtable
define dso_local void @slurmdbd_agent_rem_conn() local_unnamed_addr #0 {
  %1 = tail call zeroext i1 @slurm_running_in_slurmctld() #13
  br i1 %1, label %2, label %33

2:                                                ; preds = %0
  %3 = load i64, ptr @agent_tid, align 8
  %.not.i = icmp eq i64 %3, 0
  br i1 %.not.i, label %_shutdown_agent.exit, label %4

4:                                                ; preds = %2
  %5 = tail call i64 @time(ptr noundef null) #13
  store i64 %5, ptr @slurmdbd_shutdown, align 8
  %6 = tail call i32 @pthread_mutex_lock(ptr noundef nonnull @agent_lock) #13
  %.not12.i = icmp eq i32 %6, 0
  br i1 %.not12.i, label %9, label %7

7:                                                ; preds = %4
  %8 = tail call ptr @__errno_location() #14
  store i32 %6, ptr %8, align 4
  tail call void (ptr, ...) @slurm_fatal_abort(ptr noundef nonnull @.str, ptr noundef nonnull @__func__._shutdown_agent) #15
  unreachable

9:                                                ; preds = %4
  %.b13.i = load i1, ptr @agent_running, align 1
  br i1 %.b13.i, label %10, label %15

10:                                               ; preds = %9
  %11 = tail call i32 @pthread_cond_broadcast(ptr noundef nonnull @agent_cond) #13
  %.not14.i = icmp eq i32 %11, 0
  br i1 %.not14.i, label %15, label %12

12:                                               ; preds = %10
  %13 = tail call ptr @__errno_location() #14
  store i32 %11, ptr %13, align 4
  %14 = tail call i32 (ptr, ...) @slurm_error(ptr noundef nonnull @.str.9, ptr noundef nonnull @.str.3, i32 noundef 894, ptr noundef nonnull @__func__._shutdown_agent) #13
  br label %15

15:                                               ; preds = %12, %10, %9
  %16 = tail call i32 @pthread_mutex_unlock(ptr noundef nonnull @agent_lock) #13
  %.not15.i = icmp eq i32 %16, 0
  br i1 %.not15.i, label %19, label %17

17:                                               ; preds = %15
  %18 = tail call ptr @__errno_location() #14
  store i32 %16, ptr %18, align 4
  tail call void (ptr, ...) @slurm_fatal_abort(ptr noundef nonnull @.str.1, ptr noundef nonnull @__func__._shutdown_agent) #15
  unreachable

19:                                               ; preds = %15
  %20 = load i64, ptr @agent_tid, align 8
  %.not16.i = icmp eq i64 %20, 0
  br i1 %.not16.i, label %_shutdown_agent.exit, label %21

21:                                               ; preds = %19
  %22 = tail call i32 @pthread_join(i64 noundef %20, ptr noundef null) #13
  store i64 0, ptr @agent_tid, align 8
  %.not17.i = icmp eq i32 %22, 0
  br i1 %.not17.i, label %_shutdown_agent.exit, label %23

23:                                               ; preds = %21
  %24 = tail call ptr @__errno_location() #14
  store i32 %22, ptr %24, align 4
  %25 = tail call i32 (ptr, ...) @slurm_error(ptr noundef nonnull @.str.65, ptr noundef nonnull @__func__._shutdown_agent) #13
  br label %_shutdown_agent.exit

_shutdown_agent.exit:                             ; preds = %2, %19, %21, %23
  %26 = tail call i32 @pthread_mutex_lock(ptr noundef nonnull @slurmdbd_lock) #13
  %.not = icmp eq i32 %26, 0
  br i1 %.not, label %29, label %27

27:                                               ; preds = %_shutdown_agent.exit
  %28 = tail call ptr @__errno_location() #14
  store i32 %26, ptr %28, align 4
  tail call void (ptr, ...) @slurm_fatal_abort(ptr noundef nonnull @.str, ptr noundef nonnull @__func__.slurmdbd_agent_rem_conn) #15
  unreachable

29:                                               ; preds = %_shutdown_agent.exit
  store ptr null, ptr @slurmdbd_conn, align 8
  %30 = tail call i32 @pthread_mutex_unlock(ptr noundef nonnull @slurmdbd_lock) #13
  %.not5 = icmp eq i32 %30, 0
  br i1 %.not5, label %33, label %31

31:                                               ; preds = %29
  %32 = tail call ptr @__errno_location() #14
  store i32 %30, ptr %32, align 4
  tail call void (ptr, ...) @slurm_fatal_abort(ptr noundef nonnull @.str.1, ptr noundef nonnull @__func__.slurmdbd_agent_rem_conn) #15
  unreachable

33:                                               ; preds = %29, %0
  ret void
}